target datalayout = "e-m:e-p270:32:32-p271:32:32-p272:64:64-i64:64-i128:128-f80:128-n8:16:32:64-S128"
target triple = "x86_64-unknown-linux-gnu"

%struct._GSourceFuncs = type { ptr, ptr, ptr, ptr, ptr, ptr }
%struct.QIOChannelWebsock = type { %struct.QIOChannel, ptr, %struct.Buffer, %struct.Buffer, %struct.Buffer, i64, i64, %union.QIOChannelWebsockMask, i32, ptr, i32, i8 }
%struct.QIOChannel = type { %struct.Object, i32, ptr, ptr, ptr, ptr, ptr, i8 }
%struct.Object = type { ptr, ptr, ptr, i32, ptr }
%struct.Buffer = type { ptr, i64, i64, i64, ptr }
%union.QIOChannelWebsockMask = type { i32 }
%struct.QIOChannelWebsockSource = type { %struct._GSource, ptr, i32 }
%struct._GSource = type { ptr, ptr, ptr, i32, ptr, i32, i32, i32, ptr, ptr, ptr, ptr, ptr }

@.str = private unnamed_addr constant [20 x i8] c"qio-channel-websock\00", align 1
@qio_channel_websock_source_funcs = dso_local global %struct._GSourceFuncs { ptr @qio_channel_websock_source_prepare, ptr @qio_channel_websock_source_check, ptr @qio_channel_websock_source_dispatch, ptr @qio_channel_websock_source_finalize, ptr null, ptr null }, align 8
@.str.1 = private unnamed_addr constant [107 x i8] c"/home/dtcxzyw/WorkSpace/Projects/compilers/llvm-opt-benchmark/bench/qemu/qemu/include/io/channel-websock.h\00", align 1
@__func__.QIO_CHANNEL_WEBSOCK = private unnamed_addr constant [20 x i8] c"QIO_CHANNEL_WEBSOCK\00", align 1

; Function Attrs: nounwind sspstrong uwtable
define internal void @qio_channel_websock_unset_watch(ptr noundef %ioc) #0 {
entry:
  %ioc.addr = alloca ptr, align 8
  store ptr %ioc, ptr %ioc.addr, align 8
  %0 = load ptr, ptr %ioc.addr, align 8
  %io_tag = getelementptr inbounds %struct.QIOChannelWebsock, ptr %0, i32 0, i32 8
  %1 = load i32, ptr %io_tag, align 4
  %tobool = icmp ne i32 %1, 0
  br i1 %tobool, label %if.then, label %if.end

if.then:                                          ; preds = %entry
  %2 = load ptr, ptr %ioc.addr, align 8
  %io_tag1 = getelementptr inbounds %struct.QIOChannelWebsock, ptr %2, i32 0, i32 8
  %3 = load i32, ptr %io_tag1, align 4
  %call = call i32 @g_source_remove(i32 noundef %3)
  %4 = load ptr, ptr %ioc.addr, align 8
  %io_tag2 = getelementptr inbounds %struct.QIOChannelWebsock, ptr %4, i32 0, i32 8
  store i32 0, ptr %io_tag2, align 4
  br label %if.end

if.end:                                           ; preds = %if.then, %entry
  ret void
}

; Function Attrs: nounwind sspstrong uwtable
define internal void @qio_channel_websock_set_watch(ptr noundef %ioc) #0 {
entry:
  %ioc.addr = alloca ptr, align 8
  %cond = alloca i32, align 4
  store ptr %ioc, ptr %ioc.addr, align 8
  store i32 0, ptr %cond, align 4
  %0 = load ptr, ptr %ioc.addr, align 8
  call void @qio_channel_websock_unset_watch(ptr noundef %0)
  %1 = load ptr, ptr %ioc.addr, align 8
  %io_err = getelementptr inbounds %struct.QIOChannelWebsock, ptr %1, i32 0, i32 9
  %2 = load ptr, ptr %io_err, align 8
  %tobool = icmp ne ptr %2, null
  br i1 %tobool, label %if.then, label %if.end

if.then:                                          ; preds = %entry
  br label %if.end12

if.end:                                           ; preds = %entry
  %3 = load ptr, ptr %ioc.addr, align 8
  %encoutput = getelementptr inbounds %struct.QIOChannelWebsock, ptr %3, i32 0, i32 3
  %offset = getelementptr inbounds %struct.Buffer, ptr %encoutput, i32 0, i32 2
  %4 = load i64, ptr %offset, align 8
  %tobool1 = icmp ne i64 %4, 0
  br i1 %tobool1, label %if.then2, label %if.end3

if.then2:                                         ; preds = %if.end
  %5 = load i32, ptr %cond, align 4
  %or = or i32 %5, 4
  store i32 %or, ptr %cond, align 4
  br label %if.end3

if.end3:                                          ; preds = %if.then2, %if.end
  %6 = load ptr, ptr %ioc.addr, align 8
  %encinput = getelementptr inbounds %struct.QIOChannelWebsock, ptr %6, i32 0, i32 2
  %offset4 = getelementptr inbounds %struct.Buffer, ptr %encinput, i32 0, i32 2
  %7 = load i64, ptr %offset4, align 8
  %cmp = icmp ult i64 %7, 8192
  br i1 %cmp, label %land.lhs.true, label %if.end8

land.lhs.true:                                    ; preds = %if.end3
  %8 = load ptr, ptr %ioc.addr, align 8
  %io_eof = getelementptr inbounds %struct.QIOChannelWebsock, ptr %8, i32 0, i32 10
  %9 = load i32, ptr %io_eof, align 8
  %tobool5 = icmp ne i32 %9, 0
  br i1 %tobool5, label %if.end8, label %if.then6

if.then6:                                         ; preds = %land.lhs.true
  %10 = load i32, ptr %cond, align 4
  %or7 = or i32 %10, 1
  store i32 %or7, ptr %cond, align 4
  br label %if.end8

if.end8:                                          ; preds = %if.then6, %land.lhs.true, %if.end3
  %11 = load i32, ptr %cond, align 4
  %tobool9 = icmp ne i32 %11, 0
  br i1 %tobool9, label %if.then10, label %if.end12

if.then10:                                        ; preds = %if.end8
  %12 = load ptr, ptr %ioc.addr, align 8
  %call = call ptr @object_ref(ptr noundef %12)
  %13 = load ptr, ptr %ioc.addr, align 8
  %master = getelementptr inbounds %struct.QIOChannelWebsock, ptr %13, i32 0, i32 1
  %14 = load ptr, ptr %master, align 8
  %15 = load i32, ptr %cond, align 4
  %16 = load ptr, ptr %ioc.addr, align 8
  %call11 = call i32 @qio_channel_add_watch(ptr noundef %14, i32 noundef %15, ptr noundef @qio_channel_websock_flush, ptr noundef %16, ptr noundef @qio_channel_websock_flush_free)
  %17 = load ptr, ptr %ioc.addr, align 8
  %io_tag = getelementptr inbounds %struct.QIOChannelWebsock, ptr %17, i32 0, i32 8
  store i32 %call11, ptr %io_tag, align 4
  br label %if.end12

if.end12:                                         ; preds = %if.then10, %if.end8, %if.then
  ret void
}

; Function Attrs: nounwind sspstrong uwtable
define internal ptr @QIO_CHANNEL_WEBSOCK(ptr noundef %obj) #0 {
entry:
  %obj.addr = alloca ptr, align 8
  store ptr %obj, ptr %obj.addr, align 8
  %0 = load ptr, ptr %obj.addr, align 8
  %call = call ptr @object_dynamic_cast_assert(ptr noundef %0, ptr noundef @.str, ptr noundef @.str.1, i32 noundef 30, ptr noundef @__func__.QIO_CHANNEL_WEBSOCK)
  ret ptr %call
}

; Function Attrs: nounwind sspstrong uwtable
define internal ptr @qio_channel_websock_create_watch(ptr noundef %ioc, i32 noundef %condition) #0 {
entry:
  %ioc.addr = alloca ptr, align 8
  %condition.addr = alloca i32, align 4
  %wioc = alloca ptr, align 8
  %ssource = alloca ptr, align 8
  %source = alloca ptr, align 8
  store ptr %ioc, ptr %ioc.addr, align 8
  store i32 %condition, ptr %condition.addr, align 4
  %0 = load ptr, ptr %ioc.addr, align 8
  %call = call ptr @QIO_CHANNEL_WEBSOCK(ptr noundef %0)
  store ptr %call, ptr %wioc, align 8
  %call1 = call ptr @g_source_new(ptr noundef @qio_channel_websock_source_funcs, i32 noundef 112)
  store ptr %call1, ptr %source, align 8
  %1 = load ptr, ptr %source, align 8
  store ptr %1, ptr %ssource, align 8
  %2 = load ptr, ptr %wioc, align 8
  %3 = load ptr, ptr %ssource, align 8
  %wioc2 = getelementptr inbounds %struct.QIOChannelWebsockSource, ptr %3, i32 0, i32 1
  store ptr %2, ptr %wioc2, align 8
  %4 = load ptr, ptr %wioc, align 8
  %call3 = call ptr @object_ref(ptr noundef %4)
  %5 = load i32, ptr %condition.addr, align 4
  %6 = load ptr, ptr %ssource, align 8
  %condition4 = getelementptr inbounds %struct.QIOChannelWebsockSource, ptr %6, i32 0, i32 2
  store i32 %5, ptr %condition4, align 8
  %7 = load ptr, ptr %wioc, align 8
  call void @qio_channel_websock_set_watch(ptr noundef %7)
  %8 = load ptr, ptr %source, align 8
  ret ptr %8
}