; Function Attrs: nounwind sspstrong uwtable
define internal ptr @qio_channel_websock_create_watch(ptr noundef %ioc, i32 noundef %condition) #0 {
entry:
  %call.i = tail call ptr @object_dynamic_cast_assert(ptr noundef %ioc, ptr noundef nonnull @.str, ptr noundef nonnull @.str.1, i32 noundef 30, ptr noundef nonnull @__func__.QIO_CHANNEL_WEBSOCK) #15
  %call1 = tail call ptr @g_source_new(ptr noundef nonnull @qio_channel_websock_source_funcs, i32 noundef 112) #15
  %wioc2 = getelementptr inbounds nuw i8, ptr %call1, i64 96
  store ptr %call.i, ptr %wioc2, align 8
  %call3 = tail call ptr @object_ref(ptr noundef %call.i) #15
  %condition4 = getelementptr inbounds nuw i8, ptr %call1, i64 104
  store i32 %condition, ptr %condition4, align 8
  %io_tag.i.i = getelementptr inbounds nuw i8, ptr %call.i, i64 244
  %0 = load i32, ptr %io_tag.i.i, align 4
  %tobool.not.i.i = icmp eq i32 %0, 0
  br i1 %tobool.not.i.i, label %qio_channel_websock_unset_watch.exit.i, label %if.then.i.i

if.then.i.i:                                      ; preds = %entry
  %call.i.i = tail call i32 @g_source_remove(i32 noundef %0) #15
  store i32 0, ptr %io_tag.i.i, align 4
  br label %qio_channel_websock_unset_watch.exit.i

qio_channel_websock_unset_watch.exit.i:           ; preds = %if.then.i.i, %entry
  %io_err.i = getelementptr inbounds nuw i8, ptr %call.i, i64 248
  %1 = load ptr, ptr %io_err.i, align 8
  %tobool.not.i = icmp eq ptr %1, null
  br i1 %tobool.not.i, label %if.end.i, label %qio_channel_websock_set_watch.exit

if.end.i:                                         ; preds = %qio_channel_websock_unset_watch.exit.i
  %offset.i = getelementptr inbounds nuw i8, ptr %call.i, i64 160
  %2 = load i64, ptr %offset.i, align 8
  %tobool1.not.i = icmp ne i64 %2, 0
  %offset4.i = getelementptr inbounds nuw i8, ptr %call.i, i64 120
  %3 = load i64, ptr %offset4.i, align 8
  %cmp.i = icmp ult i64 %3, 8192
  br i1 %cmp.i, label %land.lhs.true.i, label %if.end8.i

land.lhs.true.i:                                  ; preds = %if.end.i
  %spec.select.i = select i1 %tobool1.not.i, i32 4, i32 0
  %io_eof.i = getelementptr inbounds nuw i8, ptr %call.i, i64 256
  %4 = load i32, ptr %io_eof.i, align 8
  %tobool5.not.i = icmp eq i32 %4, 0
  %brmerge.i = select i1 %tobool5.not.i, i1 true, i1 %tobool1.not.i
  %or7.i = zext i1 %tobool5.not.i to i32
  %or7.mux.i = or disjoint i32 %spec.select.i, %or7.i
  br i1 %brmerge.i, label %if.then10.i, label %qio_channel_websock_set_watch.exit

if.end8.i:                                        ; preds = %if.end.i
  br i1 %tobool1.not.i, label %if.then10.i, label %qio_channel_websock_set_watch.exit

if.then10.i:                                      ; preds = %if.end8.i, %land.lhs.true.i
  %cond.115.i = phi i32 [ 4, %if.end8.i ], [ %or7.mux.i, %land.lhs.true.i ]
  %call.i5 = tail call ptr @object_ref(ptr noundef nonnull %call.i) #15
  %master.i = getelementptr inbounds nuw i8, ptr %call.i, i64 96
  %5 = load ptr, ptr %master.i, align 8
  %call11.i = tail call i32 @qio_channel_add_watch(ptr noundef %5, i32 noundef %cond.115.i, ptr noundef nonnull @qio_channel_websock_flush, ptr noundef nonnull %call.i, ptr noundef nonnull @qio_channel_websock_flush_free) #15
  store i32 %call11.i, ptr %io_tag.i.i, align 4
  br label %qio_channel_websock_set_watch.exit

qio_channel_websock_set_watch.exit:               ; preds = %qio_channel_websock_unset_watch.exit.i, %land.lhs.true.i, %if.end8.i, %if.then10.i
  ret ptr %call1
}